Certificate:
    Data:
        Version: 3 (0x2)
        Serial Number: 2 (0x2)
    Signature Algorithm: sha256WithRSAEncryption
        Issuer: O=Test Org, CN=Test Org rauc CA Development
        Validity
            Not Before: Jan  1 00:00:00 1970 GMT
            Not After : Dec 31 23:59:59 9999 GMT
        Subject: O=Test Org, CN=Test Org Development-1
        Subject Public Key Info:
            Public Key Algorithm: rsaEncryption
                Public-Key: (2048 bit)
                Modulus:
                    00:c6:99:1b:f1:ff:09:6d:0c:b2:45:a6:09:e5:b4:
                    f1:18:dc:48:f1:59:e5:6f:8b:ba:b5:d8:61:48:68:
                    49:b1:4e:47:0c:34:01:fa:6d:9b:4e:e0:99:c8:e9:
                    4a:6c:12:19:f6:8b:13:b0:7c:0b:a1:7d:d2:44:7c:
                    24:c7:2f:81:51:03:63:b7:cb:25:ee:65:c0:87:92:
                    df:75:24:97:1c:71:67:cc:42:60:7c:15:ad:43:e3:
                    28:b7:a2:25:4f:19:42:ce:45:48:35:b9:99:66:df:
                    50:dd:af:99:12:e8:9d:19:a9:f7:53:df:75:a0:c0:
                    3a:d6:b0:04:bc:e5:b8:43:13:2e:39:0e:bf:45:cd:
                    fc:10:e4:c3:9b:4b:a9:8d:46:2d:51:31:29:88:84:
                    fb:47:aa:98:83:f1:cf:31:7b:2f:01:56:8a:ab:cf:
                    7f:51:30:3d:00:36:05:10:b8:47:4a:72:16:98:35:
                    f5:7f:30:a4:22:db:e9:d0:51:d7:6d:40:7c:f0:f7:
                    8f:b8:6c:a1:1b:6e:fe:0c:5b:bb:6f:d1:75:f2:e7:
                    80:56:f7:95:aa:a6:c0:10:e9:13:0b:28:7e:dc:a1:
                    78:80:7e:7e:ac:88:13:f4:3a:33:57:9a:d6:81:ea:
                    21:04:51:60:51:f1:d8:da:c8:8f:55:53:e4:05:b2:
                    0a:c7
                Exponent: 65537 (0x10001)
        X509v3 extensions:
            X509v3 Subject Key Identifier: 
                AD:A3:05:C9:E6:73:31:CB:41:42:6C:02:CA:C2:10:6E:1A:39:83:C1
            X509v3 Authority Key Identifier: 
                keyid:29:C7:88:4A:CD:50:E9:67:67:1A:2C:16:2D:BA:BB:D3:DE:81:C0:7D
                DirName:/O=Test Org/CN=Test Org rauc CA Development
                serial:01

            X509v3 Basic Constraints: 
                CA:FALSE
    Signature Algorithm: sha256WithRSAEncryption
         2a:06:0e:12:55:21:80:ed:95:e3:07:b4:da:59:d5:be:30:39:
         61:88:c2:98:49:fe:f7:82:be:f4:27:8a:24:75:96:1a:be:1b:
         d8:0c:66:13:18:23:f1:d9:62:da:80:eb:b5:3f:d4:bc:69:10:
         0d:0c:bf:b1:96:43:a7:1f:98:0c:49:51:5b:28:29:b3:13:44:
         5c:ad:36:df:5d:31:e5:d5:2f:91:77:d2:eb:dc:86:c9:f3:9c:
         a2:f4:10:51:26:f3:b7:68:a7:f4:f8:2f:af:18:31:9e:71:27:
         db:40:ed:5b:55:7e:b6:89:62:1a:c6:d0:e0:1b:64:22:a1:1c:
         3d:df:b4:11:28:80:5b:90:e2:fb:e7:17:f2:86:24:7b:f5:f9:
         a0:07:6b:35:7f:e2:04:e1:cb:de:5c:4f:2c:c8:0a:45:90:55:
         ba:d6:d5:48:29:99:6f:2f:42:11:f1:ad:ec:34:28:a4:c4:21:
         d8:9c:1e:10:75:3b:36:75:74:c5:09:5d:7d:58:82:b3:90:df:
         d7:7a:3b:48:5d:53:7e:0e:4c:02:0d:7f:0d:14:d3:8e:a7:e5:
         37:35:b4:80:36:4f:47:30:c2:0a:4c:e0:a8:b6:52:5e:ef:a1:
         6a:d8:8b:e4:3c:de:5b:16:df:a1:fe:97:75:62:3e:03:90:28:
         63:0b:59:82
-----BEGIN CERTIFICATE-----
MIIDfzCCAmegAwIBAgIBAjANBgkqhkiG9w0BAQsFADA6MREwDwYDVQQKDAhUZXN0
IE9yZzElMCMGA1UEAwwcVGVzdCBPcmcgcmF1YyBDQSBEZXZlbG9wbWVudDAiGA8x
OTcwMDEwMTAwMDAwMFoYDzk5OTkxMjMxMjM1OTU5WjA0MREwDwYDVQQKDAhUZXN0
IE9yZzEfMB0GA1UEAwwWVGVzdCBPcmcgRGV2ZWxvcG1lbnQtMTCCASIwDQYJKoZI
hvcNAQEBBQADggEPADCCAQoCggEBAMaZG/H/CW0MskWmCeW08RjcSPFZ5W+LurXY
YUhoSbFORww0Afptm07gmcjpSmwSGfaLE7B8C6F90kR8JMcvgVEDY7fLJe5lwIeS
33UklxxxZ8xCYHwVrUPjKLeiJU8ZQs5FSDW5mWbfUN2vmRLonRmp91PfdaDAOtaw
BLzluEMTLjkOv0XN/BDkw5tLqY1GLVExKYiE+0eqmIPxzzF7LwFWiqvPf1EwPQA2
BRC4R0pyFpg19X8wpCLb6dBR121AfPD3j7hsoRtu/gxbu2/RdfLngFb3laqmwBDp
EwsoftyheIB+fqyIE/Q6M1ea1oHqIQRRYFHx2NrIj1VT5AWyCscCAwEAAaOBkTCB
jjAdBgNVHQ4EFgQUraMFyeZzMctBQmwCysIQbho5g8EwYgYDVR0jBFswWYAUKceI
Ss1Q6WdnGiwWLbq7096BwH2hPqQ8MDoxETAPBgNVBAoMCFRlc3QgT3JnMSUwIwYD
VQQDDBxUZXN0IE9yZyByYXVjIENBIERldmVsb3BtZW50ggEBMAkGA1UdEwQCMAAw
DQYJKoZIhvcNAQELBQADggEBACoGDhJVIYDtleMHtNpZ1b4wOWGIwphJ/veCvvQn
iiR1lhq+G9gMZhMYI/HZYtqA67U/1LxpEA0Mv7GWQ6cfmAxJUVsoKbMTRFytNt9d
MeXVL5F30uvchsnznKL0EFEm87dop/T4L68YMZ5xJ9tA7VtVfraJYhrG0OAbZCKh
HD3ftBEogFuQ4vvnF/KGJHv1+aAHazV/4gThy95cTyzICkWQVbrW1UgpmW8vQhHx
rew0KKTEIdicHhB1OzZ1dMUJXX1YgrOQ39d6O0hdU34OTAINfw0U046n5Tc1tIA2
T0cwwgpM4Ki2Ul7voWrYi+Q83lsW36H+l3ViPgOQKGMLWYI=
-----END CERTIFICATE-----
