Certificate:
    Data:
        Version: 3 (0x2)
        Serial Number: 1 (0x1)
    Signature Algorithm: sha256WithRSAEncryption
        Issuer: O=Test Org, CN=Test Org rauc CA Development
        Validity
            Not Before: Jan  1 00:00:00 1970 GMT
            Not After : Dec 31 23:59:59 9999 GMT
        Subject: O=Test Org, CN=Test Org rauc CA Development
        Subject Public Key Info:
            Public Key Algorithm: rsaEncryption
                Public-Key: (2048 bit)
                Modulus:
                    00:bf:84:70:5a:71:4a:4a:1f:41:2e:31:94:64:47:
                    0a:bf:33:49:5c:d7:83:d1:42:f6:29:50:43:06:e3:
                    f5:6b:e6:5b:85:d5:25:07:db:3a:96:37:27:4a:30:
                    ee:c3:24:86:29:74:97:75:f1:01:fe:02:bf:ac:73:
                    23:0e:46:35:77:a9:c7:14:1a:04:06:7f:e7:da:e3:
                    45:b5:64:13:96:91:46:3d:36:2c:5d:a6:b4:6b:ed:
                    1f:0e:d3:0a:07:4e:a4:85:bf:84:08:2c:bc:e2:7e:
                    fe:51:f2:eb:e9:72:1a:8c:3b:4f:2e:3a:f1:62:37:
                    b4:c1:70:4b:35:b7:15:c9:00:ea:3c:d1:00:1c:a0:
                    eb:9c:89:46:9a:5a:6a:c8:d4:ea:22:cc:7a:05:bd:
                    6b:ab:3c:0b:6b:79:c7:53:dc:83:f6:18:00:e0:67:
                    08:5c:33:f9:54:47:65:01:79:76:2a:63:4c:d9:b7:
                    61:72:d6:0f:e8:f7:53:f8:30:4f:77:12:43:bc:58:
                    46:72:73:8d:9c:39:74:b2:22:18:d6:51:09:df:9f:
                    d9:0e:4b:4b:04:cf:c0:d3:a7:bc:36:6e:f9:ea:86:
                    61:50:b5:18:a4:0c:62:9d:d1:a6:59:84:d0:6d:46:
                    39:1d:76:ac:e8:ce:8e:fa:62:bd:49:b1:7d:0d:34:
                    0e:c3
                Exponent: 65537 (0x10001)
        X509v3 extensions:
            X509v3 Subject Key Identifier: 
                29:C7:88:4A:CD:50:E9:67:67:1A:2C:16:2D:BA:BB:D3:DE:81:C0:7D
            X509v3 Authority Key Identifier: 
                keyid:29:C7:88:4A:CD:50:E9:67:67:1A:2C:16:2D:BA:BB:D3:DE:81:C0:7D
                DirName:/O=Test Org/CN=Test Org rauc CA Development
                serial:01

            X509v3 Basic Constraints: 
                CA:TRUE
    Signature Algorithm: sha256WithRSAEncryption
         b1:b9:7f:3b:ab:9d:43:d5:70:a6:1d:5f:f9:98:8d:a3:bb:f4:
         cc:37:20:ad:7a:67:25:b2:12:d1:dc:55:fe:18:d1:6b:f7:46:
         99:5a:bb:4b:9c:b7:34:bd:c3:95:2e:e8:ba:de:af:10:bd:0a:
         30:51:c3:6f:35:9f:04:2c:48:43:0a:03:52:5c:a0:61:0b:fa:
         78:89:64:d7:09:4d:a7:fe:d8:57:98:af:8b:ab:4e:01:99:33:
         fc:02:65:f3:3c:c4:9a:b5:10:d4:7e:a2:f2:28:82:53:8d:67:
         02:cb:0a:d8:d9:51:a4:24:42:9e:89:86:fe:4f:ef:b7:97:97:
         4a:df:b9:a4:b2:23:00:65:35:7e:76:2e:ec:74:f5:8a:9f:98:
         1f:c6:a9:40:a6:7d:80:4f:f7:e0:5c:12:03:78:53:32:6f:a4:
         bd:af:b0:fb:52:9f:30:e6:d8:9d:d4:4a:c6:44:45:91:a7:e6:
         76:52:86:9d:cf:15:e1:d1:1a:32:3f:db:28:e4:54:76:a4:bc:
         8d:2a:68:92:96:85:22:36:27:d0:bd:09:36:ef:4b:b4:af:c2:
         d8:a9:38:30:c5:32:a8:01:71:73:f5:a0:95:de:0f:a2:6f:eb:
         0a:a1:1b:02:0a:d5:9d:4c:0b:c9:bd:d7:57:8e:e3:59:e2:c2:
         fc:09:39:cb
-----BEGIN CERTIFICATE-----
MIIDiDCCAnCgAwIBAgIBATANBgkqhkiG9w0BAQsFADA6MREwDwYDVQQKDAhUZXN0
IE9yZzElMCMGA1UEAwwcVGVzdCBPcmcgcmF1YyBDQSBEZXZlbG9wbWVudDAiGA8x
OTcwMDEwMTAwMDAwMFoYDzk5OTkxMjMxMjM1OTU5WjA6MREwDwYDVQQKDAhUZXN0
IE9yZzElMCMGA1UEAwwcVGVzdCBPcmcgcmF1YyBDQSBEZXZlbG9wbWVudDCCASIw
DQYJKoZIhvcNAQEBBQADggEPADCCAQoCggEBAL+EcFpxSkofQS4xlGRHCr8zSVzX
g9FC9ilQQwbj9WvmW4XVJQfbOpY3J0ow7sMkhil0l3XxAf4Cv6xzIw5GNXepxxQa
BAZ/59rjRbVkE5aRRj02LF2mtGvtHw7TCgdOpIW/hAgsvOJ+/lHy6+lyGow7Ty46
8WI3tMFwSzW3FckA6jzRAByg65yJRppaasjU6iLMegW9a6s8C2t5x1Pcg/YYAOBn
CFwz+VRHZQF5dipjTNm3YXLWD+j3U/gwT3cSQ7xYRnJzjZw5dLIiGNZRCd+f2Q5L
SwTPwNOnvDZu+eqGYVC1GKQMYp3RplmE0G1GOR12rOjOjvpivUmxfQ00DsMCAwEA
AaOBlDCBkTAdBgNVHQ4EFgQUKceISs1Q6WdnGiwWLbq7096BwH0wYgYDVR0jBFsw
WYAUKceISs1Q6WdnGiwWLbq7096BwH2hPqQ8MDoxETAPBgNVBAoMCFRlc3QgT3Jn
MSUwIwYDVQQDDBxUZXN0IE9yZyByYXVjIENBIERldmVsb3BtZW50ggEBMAwGA1Ud
EwQFMAMBAf8wDQYJKoZIhvcNAQELBQADggEBALG5fzurnUPVcKYdX/mYjaO79Mw3
IK16ZyWyEtHcVf4Y0Wv3Rplau0uctzS9w5Uu6LrerxC9CjBRw281nwQsSEMKA1Jc
oGEL+niJZNcJTaf+2FeYr4urTgGZM/wCZfM8xJq1ENR+ovIoglONZwLLCtjZUaQk
Qp6Jhv5P77eXl0rfuaSyIwBlNX52Lux09YqfmB/GqUCmfYBP9+BcEgN4UzJvpL2v
sPtSnzDm2J3USsZERZGn5nZShp3PFeHRGjI/2yjkVHakvI0qaJKWhSI2J9C9CTbv
S7SvwtipODDFMqgBcXP1oJXeD6Jv6wqhGwIK1Z1MC8m911eO41niwvwJOcs=
-----END CERTIFICATE-----
